# SymbolsHelper-Confirmed: 15.12.0 amd64
libKF5KFace.so.10.0.0 libkf5kface10.0.0 #MINVER#
 _ZN10KFaceIface12FaceDetector11detectFacesERK6QImageRK5QSize@Base 14.12.0
 _ZN10KFaceIface12FaceDetector12setParameterERK7QStringRK8QVariant@Base 14.12.0
 _ZN10KFaceIface12FaceDetector13setParametersERK4QMapI7QString8QVariantE@Base 14.12.0
 _ZN10KFaceIface12FaceDetector14toAbsoluteRectERK6QRectFRK5QSize@Base 14.12.0
 _ZN10KFaceIface12FaceDetector14toRelativeRectERK5QRectRK5QSize@Base 14.12.0
 _ZN10KFaceIface12FaceDetector15toAbsoluteRectsERK5QListI6QRectFERK5QSize@Base 14.12.0
 _ZN10KFaceIface12FaceDetector15toRelativeRectsERK5QListI5QRectERK5QSize@Base 14.12.0
 _ZN10KFaceIface12FaceDetectorC1ERKS0_@Base 14.12.0
 _ZN10KFaceIface12FaceDetectorC1Ev@Base 14.12.0
 _ZN10KFaceIface12FaceDetectorC2ERKS0_@Base 14.12.0
 _ZN10KFaceIface12FaceDetectorC2Ev@Base 14.12.0
 _ZN10KFaceIface12FaceDetectorD1Ev@Base 14.12.0
 _ZN10KFaceIface12FaceDetectorD2Ev@Base 14.12.0
 _ZN10KFaceIface12FaceDetectoraSERKS0_@Base 14.12.0
 _ZN10KFaceIface16LibOpenCVVersionEv@Base 14.12.0
 _ZN10KFaceIface17ImageListProviderD0Ev@Base 14.12.0
 _ZN10KFaceIface17ImageListProviderD1Ev@Base 14.12.0
 _ZN10KFaceIface17ImageListProviderD2Ev@Base 14.12.0
 _ZN10KFaceIface19RecognitionDatabase11addDatabaseERK7QString@Base 14.12.0
 _ZN10KFaceIface19RecognitionDatabase11addIdentityERK4QMapI7QStringS2_E@Base 14.12.0
 _ZN10KFaceIface19RecognitionDatabase12setParameterERK7QStringRK8QVariant@Base 14.12.0
 _ZN10KFaceIface19RecognitionDatabase13clearTrainingERK5QListINS_8IdentityEERK7QString@Base 14.12.0
 _ZN10KFaceIface19RecognitionDatabase13recognizeFaceERK6QImage@Base 14.12.0
 _ZN10KFaceIface19RecognitionDatabase13setParametersERK4QMapI7QString8QVariantE@Base 14.12.0
 _ZN10KFaceIface19RecognitionDatabase14deleteIdentityERKNS_8IdentityE@Base 14.12.0
 _ZN10KFaceIface19RecognitionDatabase14recognizeFacesEPNS_17ImageListProviderE@Base 14.12.0
 _ZN10KFaceIface19RecognitionDatabase14recognizeFacesERK5QListI6QImageE@Base 14.12.0
 _ZN10KFaceIface19RecognitionDatabase16clearAllTrainingERK7QString@Base 14.12.0
 _ZN10KFaceIface19RecognitionDatabase20addIdentityAttributeEiRK7QStringS3_@Base 14.12.0
 _ZN10KFaceIface19RecognitionDatabase21addIdentityAttributesEiRK4QMapI7QStringS2_E@Base 14.12.0
 _ZN10KFaceIface19RecognitionDatabase21setIdentityAttributesEiRK4QMapI7QStringS2_E@Base 14.12.0
 _ZN10KFaceIface19RecognitionDatabase5trainERK5QListINS_8IdentityEEPNS_20TrainingDataProviderERK7QString@Base 14.12.0
 _ZN10KFaceIface19RecognitionDatabase5trainERKNS_8IdentityEPNS_20TrainingDataProviderERK7QString@Base 14.12.0
 _ZN10KFaceIface19RecognitionDatabase5trainERKNS_8IdentityERK5QListI6QImageERK7QString@Base 14.12.0
 _ZN10KFaceIface19RecognitionDatabase5trainERKNS_8IdentityERK6QImageRK7QString@Base 14.12.0
 _ZN10KFaceIface19RecognitionDatabase7Private15applyParametersEv@Base 14.12.0
 _ZN10KFaceIface19RecognitionDatabase7Private18preprocessingChainERK6QImage@Base 14.12.0
 _ZN10KFaceIface19RecognitionDatabase7Private5clearEPNS_24OpenCVLBPHFaceRecognizerERK5QListIiERK7QString@Base 14.12.0
 _ZN10KFaceIface19RecognitionDatabase7Private5trainEPNS_24OpenCVLBPHFaceRecognizerERK5QListINS_8IdentityEEPNS_20TrainingDataProviderERK7QString@Base 14.12.0
 _ZN10KFaceIface19RecognitionDatabase7Private7alignerEv@Base 14.12.0
 _ZN10KFaceIface19RecognitionDatabase7PrivateC1ERK7QString@Base 14.12.0
 _ZN10KFaceIface19RecognitionDatabase7PrivateC2ERK7QString@Base 14.12.0
 _ZN10KFaceIface19RecognitionDatabase7PrivateD1Ev@Base 14.12.0
 _ZN10KFaceIface19RecognitionDatabase7PrivateD2Ev@Base 14.12.0
 _ZN10KFaceIface19RecognitionDatabaseC1E28QExplicitlySharedDataPointerINS0_7PrivateEE@Base 14.12.0
 _ZN10KFaceIface19RecognitionDatabaseC1ERKS0_@Base 14.12.0
 _ZN10KFaceIface19RecognitionDatabaseC1Ev@Base 14.12.0
 _ZN10KFaceIface19RecognitionDatabaseC2E28QExplicitlySharedDataPointerINS0_7PrivateEE@Base 14.12.0
 _ZN10KFaceIface19RecognitionDatabaseC2ERKS0_@Base 14.12.0
 _ZN10KFaceIface19RecognitionDatabaseC2Ev@Base 14.12.0
 _ZN10KFaceIface19RecognitionDatabaseD1Ev@Base 14.12.0
 _ZN10KFaceIface19RecognitionDatabaseD2Ev@Base 14.12.0
 _ZN10KFaceIface19RecognitionDatabaseaSERKS0_@Base 14.12.0
 _ZN10KFaceIface20TrainingDataProviderD0Ev@Base 14.12.0
 _ZN10KFaceIface20TrainingDataProviderD1Ev@Base 14.12.0
 _ZN10KFaceIface20TrainingDataProviderD2Ev@Base 14.12.0
 _ZN10KFaceIface22EmptyImageListProvider5imageEv@Base 14.12.0
 _ZN10KFaceIface22EmptyImageListProvider7proceedEi@Base 14.12.0
 (optional=gccinternal|arch=!amd64)_ZN10KFaceIface22EmptyImageListProviderD0Ev@Base 14.12.0
 (optional=gccinternal|arch=!amd64)_ZN10KFaceIface22EmptyImageListProviderD1Ev@Base 14.12.0
 (optional=gccinternal|arch=!amd64)_ZN10KFaceIface22EmptyImageListProviderD2Ev@Base 14.12.0
 _ZN10KFaceIface22QListImageListProvider5imageEv@Base 14.12.0
 _ZN10KFaceIface22QListImageListProvider5resetEv@Base 14.12.0
 _ZN10KFaceIface22QListImageListProvider7proceedEi@Base 14.12.0
 _ZN10KFaceIface22QListImageListProviderC1ERK5QListI6QImageE@Base 14.12.0
 _ZN10KFaceIface22QListImageListProviderC1Ev@Base 14.12.0
 _ZN10KFaceIface22QListImageListProviderC2ERK5QListI6QImageE@Base 14.12.0
 _ZN10KFaceIface22QListImageListProviderC2Ev@Base 14.12.0
 (optional=gccinternal|arch=!amd64)_ZN10KFaceIface22QListImageListProviderD0Ev@Base 14.12.0
 (optional=gccinternal|arch=!amd64)_ZN10KFaceIface22QListImageListProviderD1Ev@Base 14.12.0
 (optional=gccinternal|arch=!amd64)_ZN10KFaceIface22QListImageListProviderD2Ev@Base 14.12.0
 _ZN10KFaceIface7versionEv@Base 14.12.0
 _ZN10KFaceIface8Identity12setAttributeERK7QStringS3_@Base 14.12.0
 _ZN10KFaceIface8Identity16setAttributesMapERK4QMapI7QStringS2_E@Base 14.12.0
 _ZN10KFaceIface8Identity5setIdEi@Base 14.12.0
 _ZN10KFaceIface8IdentityC1ERKS0_@Base 14.12.0
 _ZN10KFaceIface8IdentityC1Ev@Base 14.12.0
 _ZN10KFaceIface8IdentityC2ERKS0_@Base 14.12.0
 _ZN10KFaceIface8IdentityC2Ev@Base 14.12.0
 _ZN10KFaceIface8IdentityD1Ev@Base 14.12.0
 _ZN10KFaceIface8IdentityD2Ev@Base 14.12.0
 _ZN10KFaceIface8IdentityaSERKS0_@Base 14.12.0
 _ZNK10KFaceIface12FaceDetector10parametersEv@Base 14.12.0
 _ZNK10KFaceIface12FaceDetector17backendIdentifierEv@Base 14.12.0
 _ZNK10KFaceIface12FaceDetector20recommendedImageSizeERK5QSize@Base 14.12.0
 _ZNK10KFaceIface19RecognitionDatabase10parametersEv@Base 14.12.0
 _ZNK10KFaceIface19RecognitionDatabase12findIdentityERK4QMapI7QStringS2_E@Base 14.12.0
 _ZNK10KFaceIface19RecognitionDatabase12findIdentityERK7QStringS3_@Base 14.12.0
 _ZNK10KFaceIface19RecognitionDatabase13allIdentitiesEv@Base 14.12.0
 _ZNK10KFaceIface19RecognitionDatabase16trainingCostHintEv@Base 14.12.0
 _ZNK10KFaceIface19RecognitionDatabase17backendIdentifierEv@Base 14.12.0
 _ZNK10KFaceIface19RecognitionDatabase20recommendedImageSizeERK5QSize@Base 14.12.0
 _ZNK10KFaceIface19RecognitionDatabase6isNullEv@Base 14.12.0
 _ZNK10KFaceIface19RecognitionDatabase7Private15findByAttributeERK7QStringS4_@Base 14.12.0
 _ZNK10KFaceIface19RecognitionDatabase7Private16findByAttributesERK7QStringRK4QMapIS2_S2_E@Base 14.12.0
 _ZNK10KFaceIface19RecognitionDatabase7Private16identityContainsERKNS_8IdentityERK7QStringS7_@Base 14.12.0
 _ZNK10KFaceIface19RecognitionDatabase8identityEi@Base 14.12.0
 _ZNK10KFaceIface22EmptyImageListProvider4sizeEv@Base 14.12.0
 _ZNK10KFaceIface22EmptyImageListProvider5atEndEv@Base 14.12.0
 _ZNK10KFaceIface22QListImageListProvider4sizeEv@Base 14.12.0
 _ZNK10KFaceIface22QListImageListProvider5atEndEv@Base 14.12.0
 _ZNK10KFaceIface8Identity13attributesMapEv@Base 14.12.0
 _ZNK10KFaceIface8Identity2idEv@Base 14.12.0
 _ZNK10KFaceIface8Identity6isNullEv@Base 14.12.0
 _ZNK10KFaceIface8Identity9attributeERK7QString@Base 14.12.0
 _ZNK10KFaceIface8IdentityeqERKS0_@Base 14.12.0
 (optional=templinst)_ZNSt6vectorIS_IS_IfSaIfEESaIS1_EESaIS3_EE19_M_emplace_back_auxIIRKS3_EEEvDpOT_@Base 15.12.0
 (optional=templinst)_ZNSt6vectorIS_IS_IfSaIfEESaIS1_EESaIS3_EE19_M_emplace_back_auxIJRKS3_EEEvDpOT_@Base 15.12.0
 (optional=templinst)_ZNSt6vectorIS_IfSaIfEESaIS1_EE19_M_emplace_back_auxIIRKS1_EEEvDpOT_@Base 15.12.0
 (optional=templinst)_ZNSt6vectorIS_IfSaIfEESaIS1_EE19_M_emplace_back_auxIJRKS1_EEEvDpOT_@Base 15.12.0
 (optional=templinst)_ZNSt6vectorIS_IfSaIfEESaIS1_EED1Ev@Base 14.12.0
 (optional=templinst)_ZNSt6vectorIS_IfSaIfEESaIS1_EED2Ev@Base 14.12.0
 (optional=templinst)_ZNSt6vectorIS_IfSaIfEESaIS1_EEaSERKS3_@Base 14.12.0
 (optional=templinst)_ZNSt6vectorIfSaIfEEaSERKS1_@Base 14.12.0
 (optional=templinst)_ZNSt6vectorIiSaIiEE19_M_emplace_back_auxIIiEEEvDpOT_@Base 15.12.0
 (optional=templinst)_ZNSt6vectorIiSaIiEE19_M_emplace_back_auxIJiEEEvDpOT_@Base 15.12.0
 (optional=templinst)_ZNSt8_Rb_treeIdSt4pairIKdiESt10_Select1stIS2_ESt4lessIdESaIS2_EE8_M_eraseEPSt13_Rb_tree_nodeIS2_E@Base 14.12.0
 (optional=templinst|arch=!amd64)_ZNSt8_Rb_treeIiSt4pairIKiSt6vectorIiSaIiEEESt10_Select1stIS5_ESt4lessIiESaIS5_EE17_M_insert_unique_ESt23_Rb_tree_const_iteratorIS5_ERKS5_@Base 14.12.0
 (optional=templinst)_ZNSt8_Rb_treeIiSt4pairIKiSt6vectorIiSaIiEEESt10_Select1stIS5_ESt4lessIiESaIS5_EE24_M_get_insert_unique_posERS1_@Base 14.12.0
 (optional=templinst|arch=amd64)_ZNSt8_Rb_treeIiSt4pairIKiSt6vectorIiSaIiEEESt10_Select1stIS5_ESt4lessIiESaIS5_EE29_M_get_insert_hint_unique_posESt23_Rb_tree_const_iteratorIS5_ERS1_@Base 14.12.2
 (optional=templinst)_ZNSt8_Rb_treeIiSt4pairIKiSt6vectorIiSaIiEEESt10_Select1stIS5_ESt4lessIiESaIS5_EE8_M_eraseEPSt13_Rb_tree_nodeIS5_E@Base 14.12.0
 (optional=templinst|arch=i386)_ZNSt8_Rb_treeIiSt4pairIKiiESt10_Select1stIS2_ESt4lessIiESaIS2_EE17_M_insert_unique_ESt23_Rb_tree_const_iteratorIS2_ERKS2_@Base 14.12.2
 (optional=templinst)_ZNSt8_Rb_treeIiSt4pairIKiiESt10_Select1stIS2_ESt4lessIiESaIS2_EE22_M_emplace_hint_uniqueIIRKSt21piecewise_construct_tSt5tupleIIRS1_EESD_IIEEEEESt17_Rb_tree_iteratorIS2_ESt23_Rb_tree_const_iteratorIS2_EDpOT_@Base 15.12.0
 (optional=templinst)_ZNSt8_Rb_treeIiSt4pairIKiiESt10_Select1stIS2_ESt4lessIiESaIS2_EE22_M_emplace_hint_uniqueIJRKSt21piecewise_construct_tSt5tupleIJRS1_EESD_IJEEEEESt17_Rb_tree_iteratorIS2_ESt23_Rb_tree_const_iteratorIS2_EDpOT_@Base 15.12.0
 (optional=templinst)_ZNSt8_Rb_treeIiSt4pairIKiiESt10_Select1stIS2_ESt4lessIiESaIS2_EE24_M_get_insert_unique_posERS1_@Base 14.12.0
 (optional=templinst|arch=amd64)_ZNSt8_Rb_treeIiSt4pairIKiiESt10_Select1stIS2_ESt4lessIiESaIS2_EE29_M_get_insert_hint_unique_posESt23_Rb_tree_const_iteratorIS2_ERS1_@Base 14.12.2
 (optional=templinst)_ZNSt8_Rb_treeIiSt4pairIKiiESt10_Select1stIS2_ESt4lessIiESaIS2_EE8_M_eraseEPSt13_Rb_tree_nodeIS2_E@Base 14.12.0
 _ZTI9QSqlQuery@Base 15.12.0
 _ZTIN10KFaceIface17ImageListProviderE@Base 14.12.0
 _ZTIN10KFaceIface20TrainingDataProviderE@Base 14.12.0
 _ZTIN10KFaceIface22EmptyImageListProviderE@Base 14.12.0
 _ZTIN10KFaceIface22QListImageListProviderE@Base 14.12.0
 _ZTS9QSqlQuery@Base 15.12.0
 _ZTSN10KFaceIface17ImageListProviderE@Base 14.12.0
 _ZTSN10KFaceIface20TrainingDataProviderE@Base 14.12.0
 _ZTSN10KFaceIface22EmptyImageListProviderE@Base 14.12.0
 _ZTSN10KFaceIface22QListImageListProviderE@Base 14.12.0
 _ZTVN10KFaceIface17ImageListProviderE@Base 14.12.0
 _ZTVN10KFaceIface20TrainingDataProviderE@Base 14.12.0
 _ZTVN10KFaceIface22EmptyImageListProviderE@Base 14.12.0
 _ZTVN10KFaceIface22QListImageListProviderE@Base 14.12.0
